target datalayout = "e-m:e-p270:32:32-p271:32:32-p272:64:64-i64:64-i128:128-f80:128-n8:16:32:64-S128"
target triple = "x86_64-pc-linux-gnu"

%struct._packet_info = type { ptr, ptr, i32, i32, %struct.nstime_t, %struct.nstime_t, %struct.nstime_t, i8, ptr, ptr, ptr, ptr, %struct._address, %struct._address, %struct._address, %struct._address, %struct._address, %struct._address, i32, ptr, i8, [3 x i8], %struct.anon, i32, i32, i32, i32, ptr, i8, ptr, ptr, i16, i16, i32, i32, i16, i32, i32, ptr, ptr, ptr, i8, i8, i16, i16, i16, i32, i16, i16, ptr, ptr, ptr, ptr, ptr, i32, i32 }
%struct.nstime_t = type { i64, i32 }
%struct._address = type { i32, i32, ptr, ptr }
%struct.anon = type { i8, [3 x i8] }

@hf_ua3g_main_voice_mode = internal global i32 0, align 4
@hf_ua3g_main_voice_mode_tune = internal global i32 0, align 4
@hf_ua3g_main_voice_mode_cadence = internal global i32 0, align 4
@hf_ua3g_main_voice_mode_speaker_volume = internal global i32 0, align 4
@hf_ua3g_main_voice_mode_microphone_volume = internal global i32 0, align 4
@hf_ua3g_main_voice_mode_sending_level = internal global i32 0, align 4
@hf_ua3g_main_voice_mode_handset_level = internal global i32 0, align 4
@hf_ua3g_main_voice_mode_headset_level = internal global i32 0, align 4
@hf_ua3g_main_voice_mode_handsfree_level = internal global i32 0, align 4
@.str.1218 = private unnamed_addr constant [8 x i8] c"Unknown\00", align 1
@.str.1223 = private unnamed_addr constant [5 x i8] c": %s\00", align 1

; Function Attrs: null_pointer_is_valid sspstrong uwtable
define internal void @decode_main_voice_mode(ptr noundef %0, ptr noundef %1, ptr noundef %2, i32 noundef %3, i32 noundef %4) #0 {
  %6 = alloca ptr, align 8
  %7 = alloca ptr, align 8
  %8 = alloca ptr, align 8
  %9 = alloca i32, align 4
  %10 = alloca i32, align 4
  %11 = alloca i8, align 1
  %12 = alloca ptr, align 8
  %13 = alloca i32, align 4
  %14 = alloca i8, align 1
  %15 = alloca i8, align 1
  %16 = alloca i8, align 1
  store ptr %0, ptr %6, align 8
  store ptr %1, ptr %7, align 8
  store ptr %2, ptr %8, align 8
  store i32 %3, ptr %9, align 4
  store i32 %4, ptr %10, align 4
  call void @llvm.lifetime.start.p0(i64 1, ptr %11) #8
  call void @llvm.lifetime.start.p0(i64 8, ptr %12) #8
  %17 = load ptr, ptr %6, align 8
  store ptr %17, ptr %12, align 8
  %18 = load ptr, ptr %7, align 8
  %19 = load i32, ptr %9, align 4
  %20 = call zeroext i8 @tvb_get_uint8(ptr noundef %18, i32 noundef %19)
  store i8 %20, ptr %11, align 1
  %21 = load ptr, ptr %8, align 8
  %22 = getelementptr inbounds nuw %struct._packet_info, ptr %21, i32 0, i32 1
  %23 = load ptr, ptr %22, align 8
  %24 = load i8, ptr %11, align 1
  %25 = zext i8 %24 to i32
  %26 = call ptr @val_to_str_const(i32 noundef %25, ptr noundef @str_main_voice_mode, ptr noundef @.str.1218)
  call void (ptr, i32, ptr, ...) @col_append_fstr(ptr noundef %23, i32 noundef 25, ptr noundef @.str.1223, ptr noundef %26)
  %27 = load ptr, ptr %12, align 8
  %28 = icmp ne ptr %27, null
  br i1 %28, label %30, label %29

29:                                               ; preds = %5
  store i32 1, ptr %13, align 4
  br label %170

30:                                               ; preds = %5
  %31 = load ptr, ptr %12, align 8
  %32 = load i32, ptr @hf_ua3g_main_voice_mode, align 4
  %33 = load ptr, ptr %7, align 8
  %34 = load i32, ptr %9, align 4
  %35 = call ptr @proto_tree_add_item(ptr noundef %31, i32 noundef %32, ptr noundef %33, i32 noundef %34, i32 noundef 1, i32 noundef 0)
  %36 = load i32, ptr %9, align 4
  %37 = add i32 %36, 1
  store i32 %37, ptr %9, align 4
  %38 = load i32, ptr %10, align 4
  %39 = add i32 %38, -1
  store i32 %39, ptr %10, align 4
  %40 = load i8, ptr %11, align 1
  %41 = zext i8 %40 to i32
  switch i32 %41, label %168 [
    i32 6, label %42
    i32 2, label %61
    i32 3, label %61
    i32 4, label %61
    i32 5, label %61
    i32 17, label %80
    i32 18, label %109
    i32 19, label %138
    i32 0, label %167
    i32 1, label %167
    i32 16, label %167
  ]

42:                                               ; preds = %30
  %43 = load ptr, ptr %12, align 8
  %44 = load i32, ptr @hf_ua3g_main_voice_mode_tune, align 4
  %45 = load ptr, ptr %7, align 8
  %46 = load i32, ptr %9, align 4
  %47 = call ptr @proto_tree_add_item(ptr noundef %43, i32 noundef %44, ptr noundef %45, i32 noundef %46, i32 noundef 1, i32 noundef 0)
  %48 = load i32, ptr %9, align 4
  %49 = add i32 %48, 1
  store i32 %49, ptr %9, align 4
  %50 = load i32, ptr %10, align 4
  %51 = add i32 %50, -1
  store i32 %51, ptr %10, align 4
  %52 = load ptr, ptr %12, align 8
  %53 = load i32, ptr @hf_ua3g_main_voice_mode_cadence, align 4
  %54 = load ptr, ptr %7, align 8
  %55 = load i32, ptr %9, align 4
  %56 = call ptr @proto_tree_add_item(ptr noundef %52, i32 noundef %53, ptr noundef %54, i32 noundef %55, i32 noundef 1, i32 noundef 0)
  %57 = load i32, ptr %9, align 4
  %58 = add i32 %57, 1
  store i32 %58, ptr %9, align 4
  %59 = load i32, ptr %10, align 4
  %60 = add i32 %59, -1
  store i32 %60, ptr %10, align 4
  br label %61

61:                                               ; preds = %30, %30, %30, %30, %42
  %62 = load ptr, ptr %12, align 8
  %63 = load i32, ptr @hf_ua3g_main_voice_mode_speaker_volume, align 4
  %64 = load ptr, ptr %7, align 8
  %65 = load i32, ptr %9, align 4
  %66 = call ptr @proto_tree_add_item(ptr noundef %62, i32 noundef %63, ptr noundef %64, i32 noundef %65, i32 noundef 1, i32 noundef 0)
  %67 = load i32, ptr %9, align 4
  %68 = add i32 %67, 1
  store i32 %68, ptr %9, align 4
  %69 = load i32, ptr %10, align 4
  %70 = add i32 %69, -1
  store i32 %70, ptr %10, align 4
  %71 = load i32, ptr %10, align 4
  %72 = icmp ugt i32 %71, 0
  br i1 %72, label %73, label %79

73:                                               ; preds = %61
  %74 = load ptr, ptr %12, align 8
  %75 = load i32, ptr @hf_ua3g_main_voice_mode_microphone_volume, align 4
  %76 = load ptr, ptr %7, align 8
  %77 = load i32, ptr %9, align 4
  %78 = call ptr @proto_tree_add_item(ptr noundef %74, i32 noundef %75, ptr noundef %76, i32 noundef %77, i32 noundef 1, i32 noundef 0)
  br label %79

79:                                               ; preds = %73, %61
  br label %169

80:                                               ; preds = %30
  call void @llvm.lifetime.start.p0(i64 1, ptr %14) #8
  %81 = load ptr, ptr %7, align 8
  %82 = load i32, ptr %9, align 4
  %83 = call zeroext i8 @tvb_get_uint8(ptr noundef %81, i32 noundef %82)
  %84 = sext i8 %83 to i32
  %85 = sdiv i32 %84, 2
  %86 = trunc i32 %85 to i8
  store i8 %86, ptr %14, align 1
  %87 = load ptr, ptr %12, align 8
  %88 = load i32, ptr @hf_ua3g_main_voice_mode_handset_level, align 4
  %89 = load ptr, ptr %7, align 8
  %90 = load i32, ptr %9, align 4
  %91 = load i8, ptr %14, align 1
  %92 = sext i8 %91 to i32
  %93 = call ptr @proto_tree_add_int(ptr noundef %87, i32 noundef %88, ptr noundef %89, i32 noundef %90, i32 noundef 1, i32 noundef %92)
  %94 = load ptr, ptr %7, align 8
  %95 = load i32, ptr %9, align 4
  %96 = add i32 %95, 1
  %97 = call zeroext i8 @tvb_get_uint8(ptr noundef %94, i32 noundef %96)
  %98 = sext i8 %97 to i32
  %99 = sdiv i32 %98, 2
  %100 = trunc i32 %99 to i8
  store i8 %100, ptr %14, align 1
  %101 = load ptr, ptr %12, align 8
  %102 = load i32, ptr @hf_ua3g_main_voice_mode_sending_level, align 4
  %103 = load ptr, ptr %7, align 8
  %104 = load i32, ptr %9, align 4
  %105 = add i32 %104, 1
  %106 = load i8, ptr %14, align 1
  %107 = sext i8 %106 to i32
  %108 = call ptr @proto_tree_add_int(ptr noundef %101, i32 noundef %102, ptr noundef %103, i32 noundef %105, i32 noundef 1, i32 noundef %107)
  store i32 2, ptr %13, align 4
  call void @llvm.lifetime.end.p0(i64 1, ptr %14) #8
  br label %169

109:                                              ; preds = %30
  call void @llvm.lifetime.start.p0(i64 1, ptr %15) #8
  %110 = load ptr, ptr %7, align 8
  %111 = load i32, ptr %9, align 4
  %112 = call zeroext i8 @tvb_get_uint8(ptr noundef %110, i32 noundef %111)
  %113 = sext i8 %112 to i32
  %114 = sdiv i32 %113, 2
  %115 = trunc i32 %114 to i8
  store i8 %115, ptr %15, align 1
  %116 = load ptr, ptr %12, align 8
  %117 = load i32, ptr @hf_ua3g_main_voice_mode_headset_level, align 4
  %118 = load ptr, ptr %7, align 8
  %119 = load i32, ptr %9, align 4
  %120 = load i8, ptr %15, align 1
  %121 = sext i8 %120 to i32
  %122 = call ptr @proto_tree_add_int(ptr noundef %116, i32 noundef %117, ptr noundef %118, i32 noundef %119, i32 noundef 1, i32 noundef %121)
  %123 = load ptr, ptr %7, align 8
  %124 = load i32, ptr %9, align 4
  %125 = add i32 %124, 1
  %126 = call zeroext i8 @tvb_get_uint8(ptr noundef %123, i32 noundef %125)
  %127 = sext i8 %126 to i32
  %128 = sdiv i32 %127, 2
  %129 = trunc i32 %128 to i8
  store i8 %129, ptr %15, align 1
  %130 = load ptr, ptr %12, align 8
  %131 = load i32, ptr @hf_ua3g_main_voice_mode_sending_level, align 4
  %132 = load ptr, ptr %7, align 8
  %133 = load i32, ptr %9, align 4
  %134 = add i32 %133, 1
  %135 = load i8, ptr %15, align 1
  %136 = sext i8 %135 to i32
  %137 = call ptr @proto_tree_add_int(ptr noundef %130, i32 noundef %131, ptr noundef %132, i32 noundef %134, i32 noundef 1, i32 noundef %136)
  store i32 2, ptr %13, align 4
  call void @llvm.lifetime.end.p0(i64 1, ptr %15) #8
  br label %169

138:                                              ; preds = %30
  call void @llvm.lifetime.start.p0(i64 1, ptr %16) #8
  %139 = load ptr, ptr %7, align 8
  %140 = load i32, ptr %9, align 4
  %141 = call zeroext i8 @tvb_get_uint8(ptr noundef %139, i32 noundef %140)
  %142 = sext i8 %141 to i32
  %143 = sdiv i32 %142, 2
  %144 = trunc i32 %143 to i8
  store i8 %144, ptr %16, align 1
  %145 = load ptr, ptr %12, align 8
  %146 = load i32, ptr @hf_ua3g_main_voice_mode_handsfree_level, align 4
  %147 = load ptr, ptr %7, align 8
  %148 = load i32, ptr %9, align 4
  %149 = load i8, ptr %16, align 1
  %150 = sext i8 %149 to i32
  %151 = call ptr @proto_tree_add_int(ptr noundef %145, i32 noundef %146, ptr noundef %147, i32 noundef %148, i32 noundef 1, i32 noundef %150)
  %152 = load ptr, ptr %7, align 8
  %153 = load i32, ptr %9, align 4
  %154 = add i32 %153, 1
  %155 = call zeroext i8 @tvb_get_uint8(ptr noundef %152, i32 noundef %154)
  %156 = sext i8 %155 to i32
  %157 = sdiv i32 %156, 2
  %158 = trunc i32 %157 to i8
  store i8 %158, ptr %16, align 1
  %159 = load ptr, ptr %12, align 8
  %160 = load i32, ptr @hf_ua3g_main_voice_mode_sending_level, align 4
  %161 = load ptr, ptr %7, align 8
  %162 = load i32, ptr %9, align 4
  %163 = add i32 %162, 1
  %164 = load i8, ptr %16, align 1
  %165 = sext i8 %164 to i32
  %166 = call ptr @proto_tree_add_int(ptr noundef %159, i32 noundef %160, ptr noundef %161, i32 noundef %163, i32 noundef 1, i32 noundef %165)
  store i32 2, ptr %13, align 4
  call void @llvm.lifetime.end.p0(i64 1, ptr %16) #8
  br label %169

167:                                              ; preds = %30, %30, %30
  br label %168

168:                                              ; preds = %30, %167
  br label %169

169:                                              ; preds = %168, %138, %109, %80, %79
  store i32 0, ptr %13, align 4
  br label %170

170:                                              ; preds = %169, %29
  call void @llvm.lifetime.end.p0(i64 8, ptr %12) #8
  call void @llvm.lifetime.end.p0(i64 1, ptr %11) #8
  %171 = load i32, ptr %13, align 4
  switch i32 %171, label %173 [
    i32 0, label %172
    i32 1, label %172
  ]

172:                                              ; preds = %170, %170
  ret void

173:                                              ; preds = %170
  unreachable
}