; Function Attrs: null_pointer_is_valid sspstrong uwtable
define internal fastcc void @decode_main_voice_mode(ptr noundef %0, ptr noundef %1, ptr noundef readonly captures(none) %2, i32 noundef range(i32 -1, 65535) %3) unnamed_addr #0 {
  %5 = tail call zeroext i8 @tvb_get_uint8(ptr noundef %1, i32 noundef 3)
  %6 = getelementptr inbounds nuw i8, ptr %2, i64 8
  %7 = load ptr, ptr %6, align 8
  %8 = zext i8 %5 to i32
  %9 = tail call ptr @val_to_str_const(i32 noundef %8, ptr noundef nonnull @str_main_voice_mode, ptr noundef nonnull @.str.1218)
  tail call void (ptr, i32, ptr, ...) @col_append_fstr(ptr noundef %7, i32 noundef 25, ptr noundef nonnull @.str.1223, ptr noundef %9)
  %.not = icmp eq ptr %0, null
  br i1 %.not, label %60, label %10

10:                                               ; preds = %4
  %11 = load i32, ptr @hf_ua3g_main_voice_mode, align 4
  %12 = tail call ptr @proto_tree_add_item(ptr noundef nonnull %0, i32 noundef %11, ptr noundef %1, i32 noundef 3, i32 noundef 1, i32 noundef 0)
  %13 = add nsw i32 %3, -1
  switch i8 %5, label %60 [
    i8 6, label %14
    i8 2, label %20
    i8 3, label %20
    i8 4, label %20
    i8 5, label %20
    i8 17, label %27
    i8 18, label %38
    i8 19, label %49
  ]

14:                                               ; preds = %10
  %15 = load i32, ptr @hf_ua3g_main_voice_mode_tune, align 4
  %16 = tail call ptr @proto_tree_add_item(ptr noundef nonnull %0, i32 noundef %15, ptr noundef %1, i32 noundef 4, i32 noundef 1, i32 noundef 0)
  %17 = load i32, ptr @hf_ua3g_main_voice_mode_cadence, align 4
  %18 = tail call ptr @proto_tree_add_item(ptr noundef nonnull %0, i32 noundef %17, ptr noundef %1, i32 noundef 5, i32 noundef 1, i32 noundef 0)
  %19 = add nsw i32 %3, -3
  br label %20

20:                                               ; preds = %14, %10, %10, %10, %10
  %.066 = phi i32 [ %13, %10 ], [ %13, %10 ], [ %13, %10 ], [ %13, %10 ], [ %19, %14 ]
  %.0 = phi i32 [ 4, %10 ], [ 4, %10 ], [ 4, %10 ], [ 4, %10 ], [ 6, %14 ]
  %21 = load i32, ptr @hf_ua3g_main_voice_mode_speaker_volume, align 4
  %22 = tail call ptr @proto_tree_add_item(ptr noundef nonnull %0, i32 noundef %21, ptr noundef %1, i32 noundef %.0, i32 noundef 1, i32 noundef 0)
  %.not68 = icmp eq i32 %.066, 1
  br i1 %.not68, label %60, label %23

23:                                               ; preds = %20
  %24 = or disjoint i32 %.0, 1
  %25 = load i32, ptr @hf_ua3g_main_voice_mode_microphone_volume, align 4
  %26 = tail call ptr @proto_tree_add_item(ptr noundef nonnull %0, i32 noundef %25, ptr noundef %1, i32 noundef %24, i32 noundef 1, i32 noundef 0)
  br label %60

27:                                               ; preds = %10
  %28 = tail call zeroext i8 @tvb_get_uint8(ptr noundef %1, i32 noundef 4)
  %29 = sdiv i8 %28, 2
  %30 = load i32, ptr @hf_ua3g_main_voice_mode_handset_level, align 4
  %31 = sext i8 %29 to i32
  %32 = tail call ptr @proto_tree_add_int(ptr noundef nonnull %0, i32 noundef %30, ptr noundef %1, i32 noundef 4, i32 noundef 1, i32 noundef %31)
  %33 = tail call zeroext i8 @tvb_get_uint8(ptr noundef %1, i32 noundef 5)
  %34 = sdiv i8 %33, 2
  %35 = load i32, ptr @hf_ua3g_main_voice_mode_sending_level, align 4
  %36 = sext i8 %34 to i32
  %37 = tail call ptr @proto_tree_add_int(ptr noundef nonnull %0, i32 noundef %35, ptr noundef %1, i32 noundef 5, i32 noundef 1, i32 noundef %36)
  br label %60

38:                                               ; preds = %10
  %39 = tail call zeroext i8 @tvb_get_uint8(ptr noundef %1, i32 noundef 4)
  %40 = sdiv i8 %39, 2
  %41 = load i32, ptr @hf_ua3g_main_voice_mode_headset_level, align 4
  %42 = sext i8 %40 to i32
  %43 = tail call ptr @proto_tree_add_int(ptr noundef nonnull %0, i32 noundef %41, ptr noundef %1, i32 noundef 4, i32 noundef 1, i32 noundef %42)
  %44 = tail call zeroext i8 @tvb_get_uint8(ptr noundef %1, i32 noundef 5)
  %45 = sdiv i8 %44, 2
  %46 = load i32, ptr @hf_ua3g_main_voice_mode_sending_level, align 4
  %47 = sext i8 %45 to i32
  %48 = tail call ptr @proto_tree_add_int(ptr noundef nonnull %0, i32 noundef %46, ptr noundef %1, i32 noundef 5, i32 noundef 1, i32 noundef %47)
  br label %60

49:                                               ; preds = %10
  %50 = tail call zeroext i8 @tvb_get_uint8(ptr noundef %1, i32 noundef 4)
  %51 = sdiv i8 %50, 2
  %52 = load i32, ptr @hf_ua3g_main_voice_mode_handsfree_level, align 4
  %53 = sext i8 %51 to i32
  %54 = tail call ptr @proto_tree_add_int(ptr noundef nonnull %0, i32 noundef %52, ptr noundef %1, i32 noundef 4, i32 noundef 1, i32 noundef %53)
  %55 = tail call zeroext i8 @tvb_get_uint8(ptr noundef %1, i32 noundef 5)
  %56 = sdiv i8 %55, 2
  %57 = load i32, ptr @hf_ua3g_main_voice_mode_sending_level, align 4
  %58 = sext i8 %56 to i32
  %59 = tail call ptr @proto_tree_add_int(ptr noundef nonnull %0, i32 noundef %57, ptr noundef %1, i32 noundef 5, i32 noundef 1, i32 noundef %58)
  br label %60

60:                                               ; preds = %27, %38, %49, %23, %20, %10, %4
  ret void
}